; Function Attrs: mustprogress nofree norecurse nosync nounwind memory(read, argmem: readwrite, inaccessiblemem: none) uwtable
define noundef zeroext i1 @_ZN6google8protobuf8internal23IsStructurallyValidUTF8EPKci(ptr noundef %0, i32 noundef %1) local_unnamed_addr #3 {
  %3 = alloca i32, align 4
  %.b3 = load i1, ptr @_ZN6google8protobuf8internal12_GLOBAL__N_119module_initialized_E, align 1
  br i1 %.b3, label %4, label %57

4:                                                ; preds = %2
  call void @llvm.lifetime.start.p0(i64 4, ptr nonnull %3)
  %5 = icmp eq i32 %1, 0
  br i1 %5, label %_ZN6google8protobuf8internal24UTF8GenericScanFastAsciiEPKNS1_19UTF8StateMachineObjEPKciPi.exit, label %6

6:                                                ; preds = %4
  %7 = sext i32 %1 to i64
  %8 = getelementptr inbounds i8, ptr %0, i64 %7
  %9 = icmp slt i32 %1, 7
  %10 = getelementptr inbounds i8, ptr %8, i64 -7
  %11 = select i1 %9, ptr %0, ptr %10
  %12 = ptrtoint ptr %0 to i64
  br label %13

13:                                               ; preds = %.critedge4.i, %6
  %.041.i = phi ptr [ %0, %6 ], [ %50, %.critedge4.i ]
  %14 = ptrtoint ptr %.041.i to i64
  %15 = and i64 %14, 7
  %.not50.i = icmp ne i64 %15, 0
  %16 = icmp ult ptr %.041.i, %8
  %or.cond51.i = select i1 %.not50.i, i1 %16, i1 false
  br i1 %or.cond51.i, label %.lr.ph.i, label %.critedge.i

.lr.ph.i:                                         ; preds = %13, %19
  %.152.i = phi ptr [ %20, %19 ], [ %.041.i, %13 ]
  %17 = load i8, ptr %.152.i, align 1
  %18 = icmp sgt i8 %17, -1
  br i1 %18, label %19, label %.critedge2.i

19:                                               ; preds = %.lr.ph.i
  %20 = getelementptr inbounds i8, ptr %.152.i, i64 1
  %21 = ptrtoint ptr %20 to i64
  %22 = and i64 %21, 7
  %.not.i = icmp ne i64 %22, 0
  %23 = icmp ult ptr %20, %8
  %or.cond.i = select i1 %.not.i, i1 %23, i1 false
  br i1 %or.cond.i, label %.lr.ph.i, label %.critedge.i, !llvm.loop !10

.critedge.i:                                      ; preds = %19, %13
  %.1.lcssa.i = phi ptr [ %.041.i, %13 ], [ %20, %19 ]
  %.lcssa.i = phi i64 [ %15, %13 ], [ %22, %19 ]
  %24 = icmp eq i64 %.lcssa.i, 0
  %25 = icmp ult ptr %.1.lcssa.i, %11
  %or.cond64.i = select i1 %24, i1 %25, i1 false
  br i1 %or.cond64.i, label %.lr.ph55.i, label %.critedge2.i

.lr.ph55.i:                                       ; preds = %.critedge.i, %32
  %.254.i = phi ptr [ %33, %32 ], [ %.1.lcssa.i, %.critedge.i ]
  %26 = load i32, ptr %.254.i, align 4
  %27 = getelementptr inbounds i8, ptr %.254.i, i64 4
  %28 = load i32, ptr %27, align 4
  %29 = or i32 %28, %26
  %30 = and i32 %29, -2139062144
  %31 = icmp eq i32 %30, 0
  br i1 %31, label %32, label %.critedge2.i

32:                                               ; preds = %.lr.ph55.i
  %33 = getelementptr inbounds i8, ptr %.254.i, i64 8
  %34 = icmp ult ptr %33, %11
  br i1 %34, label %.lr.ph55.i, label %.critedge2.i, !llvm.loop !11

.critedge2.i:                                     ; preds = %.lr.ph.i, %32, %.lr.ph55.i, %.critedge.i
  %.3.i = phi ptr [ %.1.lcssa.i, %.critedge.i ], [ %.254.i, %.lr.ph55.i ], [ %33, %32 ], [ %.152.i, %.lr.ph.i ]
  %35 = icmp ult ptr %.3.i, %8
  br i1 %35, label %.lr.ph60.i, label %.critedge4.i

.lr.ph60.i:                                       ; preds = %.critedge2.i, %38
  %.459.i = phi ptr [ %39, %38 ], [ %.3.i, %.critedge2.i ]
  %36 = load i8, ptr %.459.i, align 1
  %37 = icmp sgt i8 %36, -1
  br i1 %37, label %38, label %.critedge4.i

38:                                               ; preds = %.lr.ph60.i
  %39 = getelementptr inbounds i8, ptr %.459.i, i64 1
  %40 = icmp ult ptr %39, %8
  br i1 %40, label %.lr.ph60.i, label %.critedge4.i, !llvm.loop !12

.critedge4.i:                                     ; preds = %38, %.lr.ph60.i, %.critedge2.i
  %.4.lcssa.i = phi ptr [ %.3.i, %.critedge2.i ], [ %.459.i, %.lr.ph60.i ], [ %39, %38 ]
  %41 = ptrtoint ptr %.4.lcssa.i to i64
  %42 = sub i64 %41, %12
  %43 = trunc i64 %42 to i32
  %sext.i = shl i64 %42, 32
  %44 = ashr exact i64 %sext.i, 32
  %45 = getelementptr inbounds i8, ptr %0, i64 %44
  %46 = sub nsw i32 %1, %43
  %47 = call noundef i32 @_ZN6google8protobuf8internal15UTF8GenericScanEPKNS1_19UTF8StateMachineObjEPKciPi(ptr noundef nonnull readonly @_ZN6google8protobuf8internalL27utf8acceptnonsurrogates_objE, ptr noundef %45, i32 noundef %46, ptr noundef nonnull %3)
  %48 = load i32, ptr %3, align 4
  %49 = sext i32 %48 to i64
  %50 = getelementptr inbounds i8, ptr %.4.lcssa.i, i64 %49
  %51 = icmp eq i32 %47, 253
  br i1 %51, label %13, label %52, !llvm.loop !13

52:                                               ; preds = %.critedge4.i
  %53 = ptrtoint ptr %50 to i64
  %54 = sub i64 %53, %12
  %55 = trunc i64 %54 to i32
  br label %_ZN6google8protobuf8internal24UTF8GenericScanFastAsciiEPKNS1_19UTF8StateMachineObjEPKciPi.exit

_ZN6google8protobuf8internal24UTF8GenericScanFastAsciiEPKNS1_19UTF8StateMachineObjEPKciPi.exit: ; preds = %4, %52
  %.04 = phi i32 [ 0, %4 ], [ %55, %52 ]
  call void @llvm.lifetime.end.p0(i64 4, ptr nonnull %3)
  %56 = icmp eq i32 %.04, %1
  br label %57

57:                                               ; preds = %2, %_ZN6google8protobuf8internal24UTF8GenericScanFastAsciiEPKNS1_19UTF8StateMachineObjEPKciPi.exit
  %.0 = phi i1 [ %56, %_ZN6google8protobuf8internal24UTF8GenericScanFastAsciiEPKNS1_19UTF8StateMachineObjEPKciPi.exit ], [ true, %2 ]
  ret i1 %.0
}